; Function Attrs: nofree norecurse nosync nounwind memory(argmem: readwrite) uwtable
define internal double @compute_median_dbl(ptr noundef captures(none) %0, double noundef %1, double noundef %2, i32 noundef %3, ptr noundef captures(none) %4, ptr noundef captures(none) %5) #8 {
  %7 = tail call nsz double @llvm.fabs.f64(double %1)
  %8 = load i32, ptr %4, align 4, !tbaa !52
  %9 = load i32, ptr %5, align 4, !tbaa !52
  %10 = icmp eq i32 %8, %9
  %11 = sext i32 %8 to i64
  %12 = getelementptr inbounds double, ptr %0, i64 %11
  %13 = load double, ptr %12, align 8, !tbaa !101
  %14 = fcmp nsz oeq double %13, -1.000000e+00
  %or.cond = select i1 %10, i1 %14, i1 false
  br i1 %or.cond, label %.critedge89, label %.thread

.thread:                                          ; preds = %6
  %15 = tail call nsz double @llvm.fabs.f64(double %2)
  %16 = fcmp nsz oeq double %15, %13
  br i1 %16, label %17, label %.thread94

17:                                               ; preds = %.thread
  %18 = getelementptr inbounds double, ptr %0, i64 %11
  store double -1.000000e+00, ptr %18, align 8, !tbaa !101
  %19 = icmp slt i32 %8, 1
  %spec.select.v = select i1 %19, i32 %3, i32 %8
  %spec.select = add nsw i32 %spec.select.v, -1
  %.172 = select i1 %10, i32 %8, i32 %spec.select
  %20 = icmp eq i32 %.172, %9
  br i1 %20, label %.critedge89, label %..thread94_crit_edge

..thread94_crit_edge:                             ; preds = %17
  %.phi.trans.insert111 = sext i32 %.172 to i64
  %.phi.trans.insert112 = getelementptr inbounds double, ptr %0, i64 %.phi.trans.insert111
  %.pre113 = load double, ptr %.phi.trans.insert112, align 8, !tbaa !101
  br label %.thread94

.thread94:                                        ; preds = %..thread94_crit_edge, %.thread
  %.pre-phi114 = phi i64 [ %.phi.trans.insert111, %..thread94_crit_edge ], [ %11, %.thread ]
  %21 = phi double [ %.pre113, %..thread94_crit_edge ], [ %13, %.thread ]
  %.07197 = phi i32 [ %.172, %..thread94_crit_edge ], [ %8, %.thread ]
  %22 = fcmp nsz ogt double %7, %21
  br i1 %22, label %.preheader, label %.lr.ph101.split.us

.preheader:                                       ; preds = %.thread94
  %23 = getelementptr inbounds double, ptr %0, i64 %.pre-phi114
  store double -1.000000e+00, ptr %23, align 8, !tbaa !101
  %24 = icmp eq i32 %9, %.07197
  br i1 %24, label %.critedge89, label %.lr.ph

.lr.ph:                                           ; preds = %.preheader, %.lr.ph
  %.399 = phi i32 [ %.4, %.lr.ph ], [ %.07197, %.preheader ]
  %25 = icmp slt i32 %.399, 1
  %spec.select88 = select i1 %25, i32 %3, i32 %.399
  %.4 = add nsw i32 %spec.select88, -1
  %26 = sext i32 %.4 to i64
  %27 = getelementptr inbounds double, ptr %0, i64 %26
  store double -1.000000e+00, ptr %27, align 8, !tbaa !101
  %28 = icmp eq i32 %9, %.4
  br i1 %28, label %.critedge89, label %.lr.ph

.lr.ph101.split.us:                               ; preds = %.thread94
  %29 = sext i32 %9 to i64
  %30 = getelementptr inbounds double, ptr %0, i64 %29
  %31 = load double, ptr %30, align 8, !tbaa !101
  %32 = fcmp nsz ogt double %7, %31
  br i1 %32, label %.lr.ph107, label %.critedge

.lr.ph107:                                        ; preds = %.lr.ph101.split.us, %35
  %33 = phi ptr [ %38, %35 ], [ %30, %.lr.ph101.split.us ]
  %.069100.us106 = phi i32 [ %spec.store.select.us, %35 ], [ %9, %.lr.ph101.split.us ]
  store double -1.000000e+00, ptr %33, align 8, !tbaa !101
  %34 = icmp eq i32 %.069100.us106, %.07197
  br i1 %34, label %.critedge89, label %35

35:                                               ; preds = %.lr.ph107
  %36 = add nsw i32 %.069100.us106, 1
  %.not84.us = icmp slt i32 %36, %3
  %spec.store.select.us = select i1 %.not84.us, i32 %36, i32 0
  %37 = sext i32 %spec.store.select.us to i64
  %38 = getelementptr inbounds double, ptr %0, i64 %37
  %39 = load double, ptr %38, align 8, !tbaa !101
  %40 = fcmp nsz ogt double %7, %39
  br i1 %40, label %.lr.ph107, label %.critedge

.critedge:                                        ; preds = %35, %.lr.ph101.split.us
  %.us-phi = phi i32 [ %9, %.lr.ph101.split.us ], [ %spec.store.select.us, %35 ]
  %41 = icmp slt i32 %.us-phi, 1
  %spec.select90.v = select i1 %41, i32 %3, i32 %.us-phi
  %spec.select90 = add nsw i32 %spec.select90.v, -1
  br label %.critedge89

.critedge89:                                      ; preds = %.lr.ph107, %.lr.ph, %6, %.preheader, %17, %.critedge
  %.273117 = phi i32 [ %.07197, %.critedge ], [ %9, %.preheader ], [ %9, %17 ], [ %8, %6 ], [ %9, %.lr.ph ], [ %.07197, %.lr.ph107 ]
  %.170 = phi i32 [ %spec.select90, %.critedge ], [ %9, %.preheader ], [ %9, %17 ], [ %9, %6 ], [ %9, %.lr.ph ], [ %.07197, %.lr.ph107 ]
  %42 = sext i32 %.170 to i64
  %43 = getelementptr inbounds double, ptr %0, i64 %42
  store double %7, ptr %43, align 8, !tbaa !101
  %.not86 = icmp sgt i32 %.170, %.273117
  %44 = select i1 %.not86, i32 %3, i32 0
  %.273.pn = add i32 %.273117, 1
  %.pn.in.in = sub i32 %.273.pn, %.170
  %.pn.in = add i32 %.pn.in.in, %44
  %.pn = sdiv i32 %.pn.in, 2
  %45 = add nsw i32 %.pn, %.170
  %.not87 = icmp slt i32 %45, %3
  %46 = select i1 %.not87, i32 0, i32 %3
  %.0 = sub nsw i32 %45, %46
  %47 = sext i32 %.0 to i64
  %48 = getelementptr inbounds double, ptr %0, i64 %47
  %49 = load double, ptr %48, align 8, !tbaa !101
  store i32 %.273117, ptr %4, align 4, !tbaa !52
  store i32 %.170, ptr %5, align 4, !tbaa !52
  ret double %49
}